target datalayout = "e-m:e-p270:32:32-p271:32:32-p272:64:64-i64:64-i128:128-f80:128-n8:16:32:64-S128"
target triple = "x86_64-pc-linux-gnu"

%struct.stbte__colorrect = type { i32, i32, i32, i32, i32 }
%struct.stbte__panel = type { i32, i32, i32, i32, i32, i32, i32, i32 }
%struct.stbte__ui_t = type { i32, i32, i32, i32, i32, i32, i32, i32, i32, i32, i32, i32, i32, i32, [2 x i32], [256 x %struct.stbte__colorrect], i32, i32, i32, i32, i32, i32, i32, i32, i32, i32, i32, i32, i32, i32, i32, i32, i32, i32, i32, i32, i32, i32, i32, i32, i32, i32, i32, i32, i32, i32, i32, i32, i32, i32, i32, i32, i32, i32, i32, i32, i32, float, ptr, float, [7 x %struct.stbte__panel], [65536 x [8 x i16]], [65536 x [1 x float]], i32, i32, ptr, i32, i32, i32, i32 }
%struct.stbte_tilemap = type { [200 x [200 x [8 x i16]]], [200 x [200 x [1 x float]]], i32, i32, i32, i32, i32, i32, i32, i32, i32, i32, i32, i32, [100 x ptr], i32, i32, ptr, i32, i32, i32, i8, i8, i8, i8, i32, i32, i32, [8 x %struct.stbte__layer], i32, i32, i32, i32, i32, i32, i32, i32, i16, [4096 x i8], ptr }
%struct.stbte__layer = type { ptr, i32, i32 }
%struct.stbte__tileinfo = type { i16, i16, ptr, i32 }

; Function Attrs: nounwind uwtable
define void @stbte__write_undo(ptr noundef %0, i16 noundef signext %1) #0 {
  %3 = alloca ptr, align 8
  %4 = alloca i16, align 2
  %5 = alloca i32, align 4
  store ptr %0, ptr %3, align 8, !tbaa !25
  store i16 %1, ptr %4, align 2, !tbaa !22
  call void @llvm.lifetime.start.p0(i64 4, ptr %5) #8
  %6 = load ptr, ptr %3, align 8, !tbaa !25
  %7 = getelementptr inbounds nuw %struct.stbte_tilemap, ptr %6, i32 0, i32 34
  %8 = load i32, ptr %7, align 4, !tbaa !45
  store i32 %8, ptr %5, align 4, !tbaa !13
  %9 = load i16, ptr %4, align 2, !tbaa !22
  %10 = load ptr, ptr %3, align 8, !tbaa !25
  %11 = getelementptr inbounds nuw %struct.stbte_tilemap, ptr %10, i32 0, i32 39
  %12 = load ptr, ptr %11, align 8, !tbaa !29
  %13 = load i32, ptr %5, align 4, !tbaa !13
  %14 = sext i32 %13 to i64
  %15 = getelementptr inbounds i16, ptr %12, i64 %14
  store i16 %9, ptr %15, align 2, !tbaa !22
  %16 = load i32, ptr %5, align 4, !tbaa !13
  %17 = add nsw i32 %16, 1
  %18 = and i32 %17, 8388607
  %19 = load ptr, ptr %3, align 8, !tbaa !25
  %20 = getelementptr inbounds nuw %struct.stbte_tilemap, ptr %19, i32 0, i32 34
  store i32 %18, ptr %20, align 4, !tbaa !45
  %21 = load ptr, ptr %3, align 8, !tbaa !25
  %22 = getelementptr inbounds nuw %struct.stbte_tilemap, ptr %21, i32 0, i32 35
  %23 = load i32, ptr %22, align 8, !tbaa !43
  %24 = icmp slt i32 %23, 8388606
  %25 = zext i1 %24 to i32
  %26 = load ptr, ptr %3, align 8, !tbaa !25
  %27 = getelementptr inbounds nuw %struct.stbte_tilemap, ptr %26, i32 0, i32 35
  %28 = load i32, ptr %27, align 8, !tbaa !43
  %29 = add nsw i32 %28, %25
  store i32 %29, ptr %27, align 8, !tbaa !43
  %30 = load ptr, ptr %3, align 8, !tbaa !25
  %31 = getelementptr inbounds nuw %struct.stbte_tilemap, ptr %30, i32 0, i32 36
  %32 = load i32, ptr %31, align 4, !tbaa !44
  %33 = icmp sgt i32 %32, 0
  %34 = zext i1 %33 to i32
  %35 = load ptr, ptr %3, align 8, !tbaa !25
  %36 = getelementptr inbounds nuw %struct.stbte_tilemap, ptr %35, i32 0, i32 36
  %37 = load i32, ptr %36, align 4, !tbaa !44
  %38 = sub nsw i32 %37, %34
  store i32 %38, ptr %36, align 4, !tbaa !44
  %39 = load ptr, ptr %3, align 8, !tbaa !25
  %40 = getelementptr inbounds nuw %struct.stbte_tilemap, ptr %39, i32 0, i32 21
  store i8 0, ptr %40, align 4, !tbaa !51
  call void @llvm.lifetime.end.p0(i64 4, ptr %5) #8
  ret void
}

; Function Attrs: nounwind uwtable
define void @stbte__undo_record(ptr noundef %0, i32 noundef %1, i32 noundef %2, i32 noundef %3, i32 noundef %4) #0 {
  %6 = alloca ptr, align 8
  %7 = alloca i32, align 4
  %8 = alloca i32, align 4
  %9 = alloca i32, align 4
  %10 = alloca i32, align 4
  store ptr %0, ptr %6, align 8, !tbaa !25
  store i32 %1, ptr %7, align 4, !tbaa !13
  store i32 %2, ptr %8, align 4, !tbaa !13
  store i32 %3, ptr %9, align 4, !tbaa !13
  store i32 %4, ptr %10, align 4, !tbaa !13
  %11 = load i32, ptr getelementptr inbounds nuw (%struct.stbte__ui_t, ptr @stbte__ui, i32 0, i32 43), align 4, !tbaa !88
  %12 = icmp ne i32 %11, 0
  br i1 %12, label %13, label %26

13:                                               ; preds = %5
  %14 = load ptr, ptr %6, align 8, !tbaa !25
  %15 = load i32, ptr %10, align 4, !tbaa !13
  %16 = trunc i32 %15 to i16
  call void @stbte__write_undo(ptr noundef %14, i16 noundef signext %16)
  %17 = load ptr, ptr %6, align 8, !tbaa !25
  %18 = load i32, ptr %7, align 4, !tbaa !13
  %19 = trunc i32 %18 to i16
  call void @stbte__write_undo(ptr noundef %17, i16 noundef signext %19)
  %20 = load ptr, ptr %6, align 8, !tbaa !25
  %21 = load i32, ptr %8, align 4, !tbaa !13
  %22 = trunc i32 %21 to i16
  call void @stbte__write_undo(ptr noundef %20, i16 noundef signext %22)
  %23 = load ptr, ptr %6, align 8, !tbaa !25
  %24 = load i32, ptr %9, align 4, !tbaa !13
  %25 = trunc i32 %24 to i16
  call void @stbte__write_undo(ptr noundef %23, i16 noundef signext %25)
  br label %26

26:                                               ; preds = %13, %5
  ret void
}

; Function Attrs: nounwind uwtable
define void @stbte__brush(ptr noundef %0, i32 noundef %1, i32 noundef %2) #0 {
  %4 = alloca ptr, align 8
  %5 = alloca i32, align 4
  %6 = alloca i32, align 4
  %7 = alloca ptr, align 8
  %8 = alloca i32, align 4
  %9 = alloca i32, align 4
  store ptr %0, ptr %4, align 8, !tbaa !25
  store i32 %1, ptr %5, align 4, !tbaa !13
  store i32 %2, ptr %6, align 4, !tbaa !13
  call void @llvm.lifetime.start.p0(i64 8, ptr %7) #8
  call void @llvm.lifetime.start.p0(i64 4, ptr %8) #8
  %10 = load ptr, ptr %4, align 8, !tbaa !25
  %11 = getelementptr inbounds nuw %struct.stbte_tilemap, ptr %10, i32 0, i32 12
  %12 = load i32, ptr %11, align 8, !tbaa !41
  %13 = icmp slt i32 %12, 0
  br i1 %13, label %14, label %15

14:                                               ; preds = %3
  store i32 1, ptr %9, align 4
  br label %149

15:                                               ; preds = %3
  %16 = load ptr, ptr %4, align 8, !tbaa !25
  %17 = getelementptr inbounds nuw %struct.stbte_tilemap, ptr %16, i32 0, i32 17
  %18 = load ptr, ptr %17, align 8, !tbaa !26
  %19 = load ptr, ptr %4, align 8, !tbaa !25
  %20 = getelementptr inbounds nuw %struct.stbte_tilemap, ptr %19, i32 0, i32 12
  %21 = load i32, ptr %20, align 8, !tbaa !41
  %22 = sext i32 %21 to i64
  %23 = getelementptr inbounds %struct.stbte__tileinfo, ptr %18, i64 %22
  store ptr %23, ptr %7, align 8, !tbaa !85
  store i32 0, ptr %8, align 4, !tbaa !13
  br label %24

24:                                               ; preds = %145, %15
  %25 = load i32, ptr %8, align 4, !tbaa !13
  %26 = load ptr, ptr %4, align 8, !tbaa !25
  %27 = getelementptr inbounds nuw %struct.stbte_tilemap, ptr %26, i32 0, i32 4
  %28 = load i32, ptr %27, align 8, !tbaa !30
  %29 = icmp slt i32 %25, %28
  br i1 %29, label %30, label %148

30:                                               ; preds = %24
  %31 = load ptr, ptr %7, align 8, !tbaa !85
  %32 = getelementptr inbounds nuw %struct.stbte__tileinfo, ptr %31, i32 0, i32 3
  %33 = load i32, ptr %32, align 8, !tbaa !76
  %34 = load i32, ptr %8, align 4, !tbaa !13
  %35 = shl i32 1, %34
  %36 = and i32 %33, %35
  %37 = icmp ne i32 %36, 0
  br i1 %37, label %39, label %38

38:                                               ; preds = %30
  br label %145

39:                                               ; preds = %30
  %40 = load i32, ptr %8, align 4, !tbaa !13
  %41 = load ptr, ptr %4, align 8, !tbaa !25
  %42 = getelementptr inbounds nuw %struct.stbte_tilemap, ptr %41, i32 0, i32 33
  %43 = load i32, ptr %42, align 8, !tbaa !42
  %44 = icmp ne i32 %40, %43
  br i1 %44, label %45, label %113

45:                                               ; preds = %39
  %46 = load ptr, ptr %4, align 8, !tbaa !25
  %47 = getelementptr inbounds nuw %struct.stbte_tilemap, ptr %46, i32 0, i32 13
  %48 = load i32, ptr %47, align 4, !tbaa !147
  %49 = icmp sge i32 %48, 0
  br i1 %49, label %50, label %57

50:                                               ; preds = %45
  %51 = load i32, ptr %8, align 4, !tbaa !13
  %52 = load ptr, ptr %4, align 8, !tbaa !25
  %53 = getelementptr inbounds nuw %struct.stbte_tilemap, ptr %52, i32 0, i32 13
  %54 = load i32, ptr %53, align 4, !tbaa !147
  %55 = icmp ne i32 %51, %54
  br i1 %55, label %56, label %57

56:                                               ; preds = %50
  br label %145

57:                                               ; preds = %50, %45
  %58 = load ptr, ptr %4, align 8, !tbaa !25
  %59 = getelementptr inbounds nuw %struct.stbte_tilemap, ptr %58, i32 0, i32 28
  %60 = load i32, ptr %8, align 4, !tbaa !13
  %61 = sext i32 %60 to i64
  %62 = getelementptr inbounds [8 x %struct.stbte__layer], ptr %59, i64 0, i64 %61
  %63 = getelementptr inbounds nuw %struct.stbte__layer, ptr %62, i32 0, i32 2
  %64 = load i32, ptr %63, align 4, !tbaa !52
  %65 = icmp ne i32 %64, 0
  br i1 %65, label %66, label %67

66:                                               ; preds = %57
  br label %145

67:                                               ; preds = %57
  %68 = load ptr, ptr %4, align 8, !tbaa !25
  %69 = getelementptr inbounds nuw %struct.stbte_tilemap, ptr %68, i32 0, i32 28
  %70 = load i32, ptr %8, align 4, !tbaa !13
  %71 = sext i32 %70 to i64
  %72 = getelementptr inbounds [8 x %struct.stbte__layer], ptr %69, i64 0, i64 %71
  %73 = getelementptr inbounds nuw %struct.stbte__layer, ptr %72, i32 0, i32 1
  %74 = load i32, ptr %73, align 8, !tbaa !54
  %75 = icmp eq i32 %74, 2
  br i1 %75, label %76, label %77

76:                                               ; preds = %67
  br label %145

77:                                               ; preds = %67
  %78 = load ptr, ptr %4, align 8, !tbaa !25
  %79 = getelementptr inbounds nuw %struct.stbte_tilemap, ptr %78, i32 0, i32 28
  %80 = load i32, ptr %8, align 4, !tbaa !13
  %81 = sext i32 %80 to i64
  %82 = getelementptr inbounds [8 x %struct.stbte__layer], ptr %79, i64 0, i64 %81
  %83 = getelementptr inbounds nuw %struct.stbte__layer, ptr %82, i32 0, i32 1
  %84 = load i32, ptr %83, align 8, !tbaa !54
  %85 = icmp eq i32 %84, 1
  br i1 %85, label %86, label %112

86:                                               ; preds = %77
  %87 = load ptr, ptr %4, align 8, !tbaa !25
  %88 = getelementptr inbounds nuw %struct.stbte_tilemap, ptr %87, i32 0, i32 0
  %89 = load i32, ptr %6, align 4, !tbaa !13
  %90 = sext i32 %89 to i64
  %91 = getelementptr inbounds [200 x [200 x [8 x i16]]], ptr %88, i64 0, i64 %90
  %92 = load i32, ptr %5, align 4, !tbaa !13
  %93 = sext i32 %92 to i64
  %94 = getelementptr inbounds [200 x [8 x i16]], ptr %91, i64 0, i64 %93
  %95 = load i32, ptr %8, align 4, !tbaa !13
  %96 = sext i32 %95 to i64
  %97 = getelementptr inbounds [8 x i16], ptr %94, i64 0, i64 %96
  %98 = load i16, ptr %97, align 2, !tbaa !22
  %99 = sext i16 %98 to i32
  %100 = load i32, ptr %8, align 4, !tbaa !13
  %101 = icmp eq i32 %100, 0
  br i1 %101, label %102, label %107

102:                                              ; preds = %86
  %103 = load ptr, ptr %4, align 8, !tbaa !25
  %104 = getelementptr inbounds nuw %struct.stbte_tilemap, ptr %103, i32 0, i32 37
  %105 = load i16, ptr %104, align 8, !tbaa !57
  %106 = sext i16 %105 to i32
  br label %108

107:                                              ; preds = %86
  br label %108

108:                                              ; preds = %107, %102
  %109 = phi i32 [ %106, %102 ], [ -1, %107 ]
  %110 = icmp ne i32 %99, %109
  br i1 %110, label %111, label %112

111:                                              ; preds = %108
  br label %145

112:                                              ; preds = %108, %77
  br label %113

113:                                              ; preds = %112, %39
  %114 = load ptr, ptr %4, align 8, !tbaa !25
  %115 = load i32, ptr %5, align 4, !tbaa !13
  %116 = load i32, ptr %6, align 4, !tbaa !13
  %117 = load i32, ptr %8, align 4, !tbaa !13
  %118 = load ptr, ptr %4, align 8, !tbaa !25
  %119 = getelementptr inbounds nuw %struct.stbte_tilemap, ptr %118, i32 0, i32 0
  %120 = load i32, ptr %6, align 4, !tbaa !13
  %121 = sext i32 %120 to i64
  %122 = getelementptr inbounds [200 x [200 x [8 x i16]]], ptr %119, i64 0, i64 %121
  %123 = load i32, ptr %5, align 4, !tbaa !13
  %124 = sext i32 %123 to i64
  %125 = getelementptr inbounds [200 x [8 x i16]], ptr %122, i64 0, i64 %124
  %126 = load i32, ptr %8, align 4, !tbaa !13
  %127 = sext i32 %126 to i64
  %128 = getelementptr inbounds [8 x i16], ptr %125, i64 0, i64 %127
  %129 = load i16, ptr %128, align 2, !tbaa !22
  %130 = sext i16 %129 to i32
  call void @stbte__undo_record(ptr noundef %114, i32 noundef %115, i32 noundef %116, i32 noundef %117, i32 noundef %130)
  %131 = load ptr, ptr %7, align 8, !tbaa !85
  %132 = getelementptr inbounds nuw %struct.stbte__tileinfo, ptr %131, i32 0, i32 0
  %133 = load i16, ptr %132, align 8, !tbaa !75
  %134 = load ptr, ptr %4, align 8, !tbaa !25
  %135 = getelementptr inbounds nuw %struct.stbte_tilemap, ptr %134, i32 0, i32 0
  %136 = load i32, ptr %6, align 4, !tbaa !13
  %137 = sext i32 %136 to i64
  %138 = getelementptr inbounds [200 x [200 x [8 x i16]]], ptr %135, i64 0, i64 %137
  %139 = load i32, ptr %5, align 4, !tbaa !13
  %140 = sext i32 %139 to i64
  %141 = getelementptr inbounds [200 x [8 x i16]], ptr %138, i64 0, i64 %140
  %142 = load i32, ptr %8, align 4, !tbaa !13
  %143 = sext i32 %142 to i64
  %144 = getelementptr inbounds [8 x i16], ptr %141, i64 0, i64 %143
  store i16 %133, ptr %144, align 2, !tbaa !22
  store i32 1, ptr %9, align 4
  br label %149

145:                                              ; preds = %111, %76, %66, %56, %38
  %146 = load i32, ptr %8, align 4, !tbaa !13
  %147 = add nsw i32 %146, 1
  store i32 %147, ptr %8, align 4, !tbaa !13
  br label %24, !llvm.loop !149

148:                                              ; preds = %24
  store i32 0, ptr %9, align 4
  br label %149

149:                                              ; preds = %148, %113, %14
  call void @llvm.lifetime.end.p0(i64 4, ptr %8) #8
  call void @llvm.lifetime.end.p0(i64 8, ptr %7) #8
  %150 = load i32, ptr %9, align 4
  switch i32 %150, label %152 [
    i32 0, label %151
    i32 1, label %151
  ]

151:                                              ; preds = %149, %149
  ret void

152:                                              ; preds = %149
  unreachable
}