; Function Attrs: nofree norecurse nosync nounwind memory(readwrite, inaccessiblemem: none) uwtable
define void @stbte__brush(ptr noundef captures(none) %0, i32 noundef %1, i32 noundef %2) local_unnamed_addr #13 {
  %4 = getelementptr inbounds nuw i8, ptr %0, i64 800040
  %5 = load i32, ptr %4, align 8, !tbaa !39
  %6 = icmp slt i32 %5, 0
  br i1 %6, label %.loopexit, label %7

7:                                                ; preds = %3
  %8 = getelementptr inbounds nuw i8, ptr %0, i64 800856
  %9 = load ptr, ptr %8, align 8, !tbaa !24
  %10 = zext nneg i32 %5 to i64
  %11 = getelementptr inbounds nuw %struct.stbte__tileinfo, ptr %9, i64 %10
  %12 = getelementptr inbounds nuw i8, ptr %0, i64 800008
  %13 = load i32, ptr %12, align 8, !tbaa !28
  %14 = icmp sgt i32 %13, 0
  br i1 %14, label %.lr.ph, label %.loopexit

.lr.ph:                                           ; preds = %7
  %15 = getelementptr inbounds nuw i8, ptr %11, i64 16
  %16 = load i32, ptr %15, align 8, !tbaa !61
  %17 = getelementptr inbounds nuw i8, ptr %0, i64 801040
  %18 = getelementptr inbounds nuw i8, ptr %0, i64 800044
  %19 = getelementptr inbounds nuw i8, ptr %0, i64 800896
  %20 = sext i32 %2 to i64
  %21 = sext i32 %1 to i64
  %22 = getelementptr inbounds nuw i8, ptr %0, i64 801056
  %wide.trip.count = zext nneg i32 %13 to i64
  br label %23

23:                                               ; preds = %.lr.ph, %106
  %indvars.iv = phi i64 [ 0, %.lr.ph ], [ %indvars.iv.next, %106 ]
  %24 = trunc nuw nsw i64 %indvars.iv to i32
  %25 = shl nuw i32 1, %24
  %26 = and i32 %16, %25
  %.not = icmp eq i32 %26, 0
  br i1 %.not, label %106, label %27

27:                                               ; preds = %23
  %28 = load i32, ptr %17, align 8, !tbaa !40
  %29 = zext i32 %28 to i64
  %.not40 = icmp eq i64 %indvars.iv, %29
  br i1 %.not40, label %51, label %30

30:                                               ; preds = %27
  %31 = load i32, ptr %18, align 4, !tbaa !130
  %32 = icmp slt i32 %31, 0
  %33 = zext i32 %31 to i64
  %.not41 = icmp eq i64 %indvars.iv, %33
  %or.cond = or i1 %32, %.not41
  br i1 %or.cond, label %34, label %106

34:                                               ; preds = %30
  %35 = getelementptr inbounds nuw [8 x %struct.stbte__layer], ptr %19, i64 0, i64 %indvars.iv
  %36 = getelementptr inbounds nuw i8, ptr %35, i64 12
  %37 = load i32, ptr %36, align 4, !tbaa !131
  %.not42 = icmp eq i32 %37, 0
  br i1 %.not42, label %38, label %106

38:                                               ; preds = %34
  %39 = getelementptr inbounds nuw i8, ptr %35, i64 8
  %40 = load i32, ptr %39, align 8, !tbaa !132
  switch i32 %40, label %51 [
    i32 2, label %106
    i32 1, label %41
  ]

41:                                               ; preds = %38
  %42 = getelementptr inbounds [200 x [200 x [8 x i16]]], ptr %0, i64 0, i64 %20, i64 %21, i64 %indvars.iv
  %43 = load i16, ptr %42, align 2, !tbaa !21
  %44 = sext i16 %43 to i32
  %45 = icmp eq i64 %indvars.iv, 0
  br i1 %45, label %46, label %49

46:                                               ; preds = %41
  %47 = load i16, ptr %22, align 8, !tbaa !46
  %48 = sext i16 %47 to i32
  br label %49

49:                                               ; preds = %41, %46
  %50 = phi i32 [ %48, %46 ], [ -1, %41 ]
  %.not43 = icmp eq i32 %50, %44
  br i1 %.not43, label %51, label %106

51:                                               ; preds = %38, %49, %27
  %52 = and i64 %indvars.iv, 4294967295
  %53 = getelementptr inbounds [200 x [200 x [8 x i16]]], ptr %0, i64 0, i64 %20, i64 %21, i64 %52
  %54 = load i32, ptr getelementptr inbounds nuw (i8, ptr @stbte__ui, i64 5292), align 4, !tbaa !76
  %.not.i = icmp eq i32 %54, 0
  br i1 %.not.i, label %stbte__undo_record.exit, label %55

55:                                               ; preds = %51
  %56 = load i16, ptr %53, align 2, !tbaa !21
  %57 = getelementptr inbounds nuw i8, ptr %0, i64 801044
  %58 = load i32, ptr %57, align 4, !tbaa !43
  %59 = getelementptr inbounds nuw i8, ptr %0, i64 805160
  %60 = load ptr, ptr %59, align 8, !tbaa !27
  %61 = sext i32 %58 to i64
  %62 = getelementptr inbounds i16, ptr %60, i64 %61
  store i16 %56, ptr %62, align 2, !tbaa !21
  %63 = add nsw i32 %58, 1
  %64 = and i32 %63, 8388607
  %65 = getelementptr inbounds nuw i8, ptr %0, i64 801048
  %66 = load i32, ptr %65, align 8, !tbaa !41
  %67 = icmp slt i32 %66, 8388606
  %68 = zext i1 %67 to i32
  %69 = add nsw i32 %66, %68
  %70 = getelementptr inbounds nuw i8, ptr %0, i64 801052
  %71 = load i32, ptr %70, align 4, !tbaa !42
  %72 = icmp sgt i32 %71, 0
  %.neg.i.i = sext i1 %72 to i32
  %73 = add i32 %71, %.neg.i.i
  %74 = getelementptr inbounds nuw i8, ptr %0, i64 800876
  %75 = trunc i32 %1 to i16
  %76 = zext nneg i32 %64 to i64
  %77 = getelementptr inbounds nuw i16, ptr %60, i64 %76
  store i16 %75, ptr %77, align 2, !tbaa !21
  %78 = add i32 %58, 2
  %79 = and i32 %78, 8388607
  %80 = icmp slt i32 %69, 8388606
  %81 = zext i1 %80 to i32
  %82 = add nsw i32 %69, %81
  %83 = icmp sgt i32 %73, 0
  %.neg.i7.i = sext i1 %83 to i32
  %84 = add i32 %73, %.neg.i7.i
  %85 = trunc i32 %2 to i16
  %86 = zext nneg i32 %79 to i64
  %87 = getelementptr inbounds nuw i16, ptr %60, i64 %86
  store i16 %85, ptr %87, align 2, !tbaa !21
  %88 = add i32 %58, 3
  %89 = and i32 %88, 8388607
  %90 = icmp slt i32 %82, 8388606
  %91 = zext i1 %90 to i32
  %92 = add nsw i32 %82, %91
  %93 = icmp sgt i32 %84, 0
  %.neg.i8.i = sext i1 %93 to i32
  %94 = add i32 %84, %.neg.i8.i
  %95 = trunc i64 %indvars.iv to i16
  %96 = zext nneg i32 %89 to i64
  %97 = getelementptr inbounds nuw i16, ptr %60, i64 %96
  store i16 %95, ptr %97, align 2, !tbaa !21
  %98 = add i32 %58, 4
  %99 = and i32 %98, 8388607
  store i32 %99, ptr %57, align 4, !tbaa !43
  %100 = icmp slt i32 %92, 8388606
  %101 = zext i1 %100 to i32
  %102 = add nsw i32 %92, %101
  store i32 %102, ptr %65, align 8, !tbaa !41
  %103 = icmp sgt i32 %94, 0
  %.neg.i9.i = sext i1 %103 to i32
  %104 = add i32 %94, %.neg.i9.i
  store i32 %104, ptr %70, align 4, !tbaa !42
  store i8 0, ptr %74, align 4, !tbaa !45
  br label %stbte__undo_record.exit

stbte__undo_record.exit:                          ; preds = %51, %55
  %105 = load i16, ptr %11, align 8, !tbaa !60
  store i16 %105, ptr %53, align 2, !tbaa !21
  br label %.loopexit

106:                                              ; preds = %38, %30, %49, %34, %23
  %indvars.iv.next = add nuw nsw i64 %indvars.iv, 1
  %exitcond.not = icmp eq i64 %indvars.iv.next, %wide.trip.count
  br i1 %exitcond.not, label %.loopexit, label %23, !llvm.loop !134

.loopexit:                                        ; preds = %106, %7, %3, %stbte__undo_record.exit
  ret void
}